; Function Attrs: noreturn nounwind uwtable
define dso_local void @git_die_config(ptr noundef %0, ptr noundef %1, ptr noundef %2, ...) local_unnamed_addr #11 {
  %4 = alloca %struct.config_set_element, align 8
  %5 = alloca ptr, align 8
  %6 = alloca [1 x %struct.__va_list_tag], align 16
  %7 = tail call ptr @get_error_routine() #30
  %.not = icmp eq ptr %2, null
  br i1 %.not, label %9, label %8

8:                                                ; preds = %3
  call void @llvm.lifetime.start.p0(i64 24, ptr nonnull %6) #30
  call void @llvm.va_start.p0(ptr nonnull %6)
  call void %7(ptr noundef nonnull %2, ptr noundef nonnull %6) #30
  call void @llvm.va_end.p0(ptr nonnull %6)
  call void @llvm.lifetime.end.p0(i64 24, ptr nonnull %6) #30
  br label %9

9:                                                ; preds = %8, %3
  call fastcc void @git_config_check_init(ptr noundef %0)
  %10 = getelementptr inbounds nuw i8, ptr %0, i64 368
  %11 = load ptr, ptr %10, align 8, !tbaa !126
  call void @llvm.lifetime.start.p0(i64 64, ptr nonnull %4) #30
  call void @llvm.lifetime.start.p0(i64 8, ptr nonnull %5) #30
  %12 = call i32 @git_config_parse_key(ptr noundef %1, ptr noundef nonnull %5, ptr noundef null)
  %.not.i.i.i = icmp eq i32 %12, 0
  br i1 %.not.i.i.i, label %13, label %configset_find_element.exit.i.i

configset_find_element.exit.i.i:                  ; preds = %9
  call void @llvm.lifetime.end.p0(i64 8, ptr nonnull %5) #30
  call void @llvm.lifetime.end.p0(i64 64, ptr nonnull %4) #30
  br label %19

13:                                               ; preds = %9
  %14 = load ptr, ptr %5, align 8, !tbaa !17
  %15 = call i32 @strhash(ptr noundef %14) #30
  %16 = getelementptr inbounds nuw i8, ptr %4, i64 8
  store i32 %15, ptr %16, align 8, !tbaa !114
  store ptr null, ptr %4, align 8, !tbaa !115
  %17 = getelementptr inbounds nuw i8, ptr %4, i64 16
  store ptr %14, ptr %17, align 8, !tbaa !108
  %18 = call ptr @hashmap_get(ptr noundef %11, ptr noundef nonnull %4, ptr noundef null) #30
  call void @free(ptr noundef %14) #30
  call void @llvm.lifetime.end.p0(i64 8, ptr nonnull %5) #30
  call void @llvm.lifetime.end.p0(i64 64, ptr nonnull %4) #30
  %.not6.i.i = icmp eq ptr %18, null
  br i1 %.not6.i.i, label %19, label %20

19:                                               ; preds = %configset_find_element.exit.i.i, %13
  call void (ptr, i32, ptr, ...) @BUG_fl(ptr noundef nonnull @.str.37, i32 noundef 2755, ptr noundef nonnull @.str.57, ptr noundef %1) #31
  unreachable

20:                                               ; preds = %13
  %21 = getelementptr inbounds nuw i8, ptr %18, i64 24
  %22 = load ptr, ptr %21, align 8, !tbaa !97
  %23 = getelementptr inbounds nuw i8, ptr %18, i64 32
  %24 = load i64, ptr %23, align 8, !tbaa !100
  %25 = getelementptr %struct.string_list_item, ptr %22, i64 %24
  %26 = getelementptr i8, ptr %25, i64 -8
  %27 = load ptr, ptr %26, align 8, !tbaa !124
  %28 = load ptr, ptr %27, align 8, !tbaa !20
  %29 = getelementptr inbounds nuw i8, ptr %27, i64 8
  %30 = load i32, ptr %29, align 8, !tbaa !22
  call void @git_die_config_linenr(ptr noundef %1, ptr noundef %28, i32 noundef %30) #32
  unreachable
}